target datalayout = "e-m:e-p270:32:32-p271:32:32-p272:64:64-i64:64-i128:128-f80:128-n8:16:32:64-S128"
target triple = "x86_64-pc-linux-gnu"

%struct.doall_st = type { ptr, i64, ptr, i32, i32 }
%struct.index_cases_st = type { i64, ptr, i32 }

@.str.11 = private unnamed_addr constant [36 x i8] c"../openssl/test/sparse_array_test.c\00", align 1
@.str.36 = private unnamed_addr constant [34 x i8] c"Index %ju with value %s not found\00", align 1

; Function Attrs: inlinehint nounwind uwtable
define internal i32 @ossl_sa_char_set(ptr noundef %0, i64 noundef %1, ptr noundef %2) #3 {
  %4 = alloca ptr, align 8
  %5 = alloca i64, align 8
  %6 = alloca ptr, align 8
  store ptr %0, ptr %4, align 8, !tbaa !8
  store i64 %1, ptr %5, align 8, !tbaa !11
  store ptr %2, ptr %6, align 8, !tbaa !36
  %7 = load ptr, ptr %4, align 8, !tbaa !8
  %8 = load i64, ptr %5, align 8, !tbaa !11
  %9 = load ptr, ptr %6, align 8, !tbaa !36
  %10 = call i32 @ossl_sa_set(ptr noundef %7, i64 noundef %8, ptr noundef %9)
  ret i32 %10
}

; Function Attrs: nounwind uwtable
define internal void @leaf_delete(i64 noundef %0, ptr noundef %1, ptr noundef %2) #0 {
  %4 = alloca i64, align 8
  %5 = alloca ptr, align 8
  %6 = alloca ptr, align 8
  %7 = alloca ptr, align 8
  %8 = alloca ptr, align 8
  %9 = alloca i64, align 8
  %10 = alloca i32, align 4
  store i64 %0, ptr %4, align 8, !tbaa !11
  store ptr %1, ptr %5, align 8, !tbaa !36
  store ptr %2, ptr %6, align 8, !tbaa !37
  call void @llvm.lifetime.start.p0(i64 8, ptr %7) #5
  %11 = load ptr, ptr %6, align 8, !tbaa !37
  store ptr %11, ptr %7, align 8, !tbaa !38
  call void @llvm.lifetime.start.p0(i64 8, ptr %8) #5
  %12 = load ptr, ptr %7, align 8, !tbaa !38
  %13 = getelementptr inbounds nuw %struct.doall_st, ptr %12, i32 0, i32 2
  %14 = load ptr, ptr %13, align 8, !tbaa !28
  store ptr %14, ptr %8, align 8, !tbaa !40
  call void @llvm.lifetime.start.p0(i64 8, ptr %9) #5
  %15 = load ptr, ptr %7, align 8, !tbaa !38
  %16 = getelementptr inbounds nuw %struct.doall_st, ptr %15, i32 0, i32 3
  store i32 0, ptr %16, align 8, !tbaa !35
  store i64 0, ptr %9, align 8, !tbaa !11
  br label %17

17:                                               ; preds = %49, %3
  %18 = load i64, ptr %9, align 8, !tbaa !11
  %19 = load ptr, ptr %7, align 8, !tbaa !38
  %20 = getelementptr inbounds nuw %struct.doall_st, ptr %19, i32 0, i32 1
  %21 = load i64, ptr %20, align 8, !tbaa !25
  %22 = icmp ult i64 %18, %21
  br i1 %22, label %23, label %52

23:                                               ; preds = %17
  %24 = load i64, ptr %4, align 8, !tbaa !11
  %25 = load ptr, ptr %8, align 8, !tbaa !40
  %26 = load i64, ptr %9, align 8, !tbaa !11
  %27 = getelementptr inbounds nuw %struct.index_cases_st, ptr %25, i64 %26
  %28 = getelementptr inbounds nuw %struct.index_cases_st, ptr %27, i32 0, i32 0
  %29 = load i64, ptr %28, align 8, !tbaa !31
  %30 = icmp eq i64 %24, %29
  br i1 %30, label %31, label %48

31:                                               ; preds = %23
  %32 = load ptr, ptr %5, align 8, !tbaa !36
  %33 = load ptr, ptr %8, align 8, !tbaa !40
  %34 = load i64, ptr %9, align 8, !tbaa !11
  %35 = getelementptr inbounds nuw %struct.index_cases_st, ptr %33, i64 %34
  %36 = getelementptr inbounds nuw %struct.index_cases_st, ptr %35, i32 0, i32 1
  %37 = load ptr, ptr %36, align 8, !tbaa !33
  %38 = call i32 @strcmp(ptr noundef %32, ptr noundef %37) #6
  %39 = icmp eq i32 %38, 0
  br i1 %39, label %40, label %48

40:                                               ; preds = %31
  %41 = load ptr, ptr %7, align 8, !tbaa !38
  %42 = getelementptr inbounds nuw %struct.doall_st, ptr %41, i32 0, i32 3
  store i32 1, ptr %42, align 8, !tbaa !35
  %43 = load ptr, ptr %7, align 8, !tbaa !38
  %44 = getelementptr inbounds nuw %struct.doall_st, ptr %43, i32 0, i32 0
  %45 = load ptr, ptr %44, align 8, !tbaa !30
  %46 = load i64, ptr %4, align 8, !tbaa !11
  %47 = call i32 @ossl_sa_char_set(ptr noundef %45, i64 noundef %46, ptr noundef null)
  store i32 1, ptr %10, align 4
  br label %55

48:                                               ; preds = %31, %23
  br label %49

49:                                               ; preds = %48
  %50 = load i64, ptr %9, align 8, !tbaa !11
  %51 = add i64 %50, 1
  store i64 %51, ptr %9, align 8, !tbaa !11
  br label %17, !llvm.loop !43

52:                                               ; preds = %17
  %53 = load i64, ptr %4, align 8, !tbaa !11
  %54 = load ptr, ptr %5, align 8, !tbaa !36
  call void (ptr, i32, ptr, ...) @test_error(ptr noundef @.str.11, i32 noundef 140, ptr noundef @.str.36, i64 noundef %53, ptr noundef %54)
  store i32 0, ptr %10, align 4
  br label %55

55:                                               ; preds = %52, %40
  call void @llvm.lifetime.end.p0(i64 8, ptr %9) #5
  call void @llvm.lifetime.end.p0(i64 8, ptr %8) #5
  call void @llvm.lifetime.end.p0(i64 8, ptr %7) #5
  %56 = load i32, ptr %10, align 4
  switch i32 %56, label %58 [
    i32 0, label %57
    i32 1, label %57
  ]

57:                                               ; preds = %55, %55
  ret void

58:                                               ; preds = %55
  unreachable
}