; Function Attrs: nounwind uwtable
define internal void @leaf_delete(i64 noundef %0, ptr noundef %1, ptr noundef captures(none) initializes((24, 28)) %2) #0 {
  %4 = getelementptr inbounds nuw i8, ptr %2, i64 16
  %5 = load ptr, ptr %4, align 8, !tbaa !25
  %6 = getelementptr inbounds nuw i8, ptr %2, i64 24
  store i32 0, ptr %6, align 8, !tbaa !32
  %7 = getelementptr inbounds nuw i8, ptr %2, i64 8
  %8 = load i64, ptr %7, align 8, !tbaa !20
  %.not = icmp eq i64 %8, 0
  br i1 %.not, label %._crit_edge, label %.lr.ph

.lr.ph:                                           ; preds = %3, %20
  %.017 = phi i64 [ %21, %20 ], [ 0, %3 ]
  %9 = getelementptr inbounds nuw %struct.index_cases_st, ptr %5, i64 %.017
  %10 = load i64, ptr %9, align 8, !tbaa !28
  %11 = icmp eq i64 %0, %10
  br i1 %11, label %12, label %20

12:                                               ; preds = %.lr.ph
  %13 = getelementptr inbounds nuw i8, ptr %9, i64 8
  %14 = load ptr, ptr %13, align 8, !tbaa !30
  %15 = tail call i32 @strcmp(ptr noundef nonnull dereferenceable(1) %1, ptr noundef nonnull dereferenceable(1) %14) #5
  %16 = icmp eq i32 %15, 0
  br i1 %16, label %17, label %20

17:                                               ; preds = %12
  store i32 1, ptr %6, align 8, !tbaa !32
  %18 = load ptr, ptr %2, align 8, !tbaa !27
  %19 = tail call i32 @ossl_sa_set(ptr noundef %18, i64 noundef %0, ptr noundef null) #4
  br label %22

20:                                               ; preds = %.lr.ph, %12
  %21 = add nuw i64 %.017, 1
  %exitcond.not = icmp eq i64 %21, %8
  br i1 %exitcond.not, label %._crit_edge, label %.lr.ph, !llvm.loop !35

._crit_edge:                                      ; preds = %20, %3
  tail call void (ptr, i32, ptr, ...) @test_error(ptr noundef nonnull @.str.11, i32 noundef 140, ptr noundef nonnull @.str.36, i64 noundef %0, ptr noundef %1) #4
  br label %22

22:                                               ; preds = %._crit_edge, %17
  ret void
}